target datalayout = "e-m:e-p270:32:32-p271:32:32-p272:64:64-i64:64-i128:128-f80:128-n8:16:32:64-S128"
target triple = "x86_64-pc-linux-gnu"

%struct._address = type { i32, i32, ptr, ptr }
%struct._packet_info = type { ptr, ptr, i32, i32, %struct.nstime_t, %struct.nstime_t, %struct.nstime_t, i8, ptr, ptr, ptr, ptr, %struct._address, %struct._address, %struct._address, %struct._address, %struct._address, %struct._address, i32, ptr, i8, [3 x i8], %struct.anon, i32, i32, i32, i32, ptr, i8, ptr, ptr, i16, i16, i32, i32, i16, i32, i32, ptr, ptr, ptr, i8, i8, i16, i16, i16, i32, i16, i16, ptr, ptr, ptr, ptr, ptr, i32, i32 }
%struct.nstime_t = type { i64, i32 }
%struct.anon = type { i8, [3 x i8] }
%struct._fragment_head = type { ptr, ptr, i32, i32, i32, i32, i32, i32, i32, i8, i32, ptr, ptr }
%struct._fragment_item = type { ptr, i32, i32, i32, i32, ptr }

; Function Attrs: alwaysinline nounwind
define internal ptr @memcpy.inline(ptr noalias %0, ptr noalias %1, i64 %2) #13 {
  %4 = alloca ptr, align 8
  %5 = alloca ptr, align 8
  %6 = alloca i64, align 8
  store ptr %0, ptr %4, align 8
  store ptr %1, ptr %5, align 8
  store i64 %2, ptr %6, align 8
  %7 = load ptr, ptr %4, align 8
  %8 = load ptr, ptr %5, align 8
  %9 = load i64, ptr %6, align 8
  %10 = load ptr, ptr %4, align 8
  %11 = call i64 @llvm.objectsize.i64.p0(ptr %10, i1 false, i1 true, i1 true)
  %12 = call ptr @__memcpy_chk(ptr noundef %7, ptr noundef %8, i64 noundef %9, i64 noundef %11) #16
  ret ptr %12
}

; Function Attrs: null_pointer_is_valid sspstrong uwtable
define internal void @fragment_defragment_and_free(ptr noundef %0, ptr noundef %1) #1 {
  %3 = alloca ptr, align 8
  %4 = alloca ptr, align 8
  %5 = alloca ptr, align 8
  %6 = alloca ptr, align 8
  %7 = alloca i32, align 4
  %8 = alloca i32, align 4
  %9 = alloca ptr, align 8
  %10 = alloca ptr, align 8
  store ptr %0, ptr %3, align 8
  store ptr %1, ptr %4, align 8
  call void @llvm.lifetime.start.p0(i64 8, ptr %5) #16
  store ptr null, ptr %5, align 8
  call void @llvm.lifetime.start.p0(i64 8, ptr %6) #16
  store ptr null, ptr %6, align 8
  call void @llvm.lifetime.start.p0(i64 4, ptr %7) #16
  store i32 0, ptr %7, align 4
  call void @llvm.lifetime.start.p0(i64 4, ptr %8) #16
  store i32 0, ptr %8, align 4
  call void @llvm.lifetime.start.p0(i64 8, ptr %9) #16
  store ptr null, ptr %9, align 8
  call void @llvm.lifetime.start.p0(i64 8, ptr %10) #16
  %11 = load ptr, ptr %3, align 8
  %12 = getelementptr inbounds nuw %struct._fragment_head, ptr %11, i32 0, i32 0
  %13 = load ptr, ptr %12, align 8
  store ptr %13, ptr %5, align 8
  br label %14

14:                                               ; preds = %36, %2
  %15 = load ptr, ptr %5, align 8
  %16 = icmp ne ptr %15, null
  br i1 %16, label %17, label %40

17:                                               ; preds = %14
  %18 = load ptr, ptr %6, align 8
  %19 = icmp ne ptr %18, null
  br i1 %19, label %20, label %28

20:                                               ; preds = %17
  %21 = load ptr, ptr %6, align 8
  %22 = getelementptr inbounds nuw %struct._fragment_item, ptr %21, i32 0, i32 2
  %23 = load i32, ptr %22, align 4
  %24 = load ptr, ptr %5, align 8
  %25 = getelementptr inbounds nuw %struct._fragment_item, ptr %24, i32 0, i32 2
  %26 = load i32, ptr %25, align 4
  %27 = icmp ne i32 %23, %26
  br i1 %27, label %28, label %34

28:                                               ; preds = %20, %17
  %29 = load ptr, ptr %5, align 8
  %30 = getelementptr inbounds nuw %struct._fragment_item, ptr %29, i32 0, i32 3
  %31 = load i32, ptr %30, align 8
  %32 = load i32, ptr %8, align 4
  %33 = add i32 %32, %31
  store i32 %33, ptr %8, align 4
  br label %34

34:                                               ; preds = %28, %20
  %35 = load ptr, ptr %5, align 8
  store ptr %35, ptr %6, align 8
  br label %36

36:                                               ; preds = %34
  %37 = load ptr, ptr %5, align 8
  %38 = getelementptr inbounds nuw %struct._fragment_item, ptr %37, i32 0, i32 0
  %39 = load ptr, ptr %38, align 8
  store ptr %39, ptr %5, align 8
  br label %14, !llvm.loop !28

40:                                               ; preds = %14
  %41 = load ptr, ptr %3, align 8
  %42 = getelementptr inbounds nuw %struct._fragment_head, ptr %41, i32 0, i32 11
  %43 = load ptr, ptr %42, align 8
  store ptr %43, ptr %9, align 8
  %44 = load i32, ptr %8, align 4
  %45 = zext i32 %44 to i64
  %46 = call noalias ptr @g_malloc(i64 noundef %45) #17
  store ptr %46, ptr %10, align 8
  %47 = load ptr, ptr %10, align 8
  %48 = load i32, ptr %8, align 4
  %49 = load i32, ptr %8, align 4
  %50 = call ptr @tvb_new_real_data(ptr noundef %47, i32 noundef %48, i32 noundef %49)
  %51 = load ptr, ptr %3, align 8
  %52 = getelementptr inbounds nuw %struct._fragment_head, ptr %51, i32 0, i32 11
  store ptr %50, ptr %52, align 8
  %53 = load ptr, ptr %3, align 8
  %54 = getelementptr inbounds nuw %struct._fragment_head, ptr %53, i32 0, i32 11
  %55 = load ptr, ptr %54, align 8
  call void @tvb_set_free_cb(ptr noundef %55, ptr noundef @g_free)
  %56 = load i32, ptr %8, align 4
  %57 = load ptr, ptr %3, align 8
  %58 = getelementptr inbounds nuw %struct._fragment_head, ptr %57, i32 0, i32 5
  store i32 %56, ptr %58, align 4
  store ptr null, ptr %6, align 8
  %59 = load ptr, ptr %3, align 8
  %60 = getelementptr inbounds nuw %struct._fragment_head, ptr %59, i32 0, i32 0
  %61 = load ptr, ptr %60, align 8
  store ptr %61, ptr %5, align 8
  br label %62

62:                                               ; preds = %149, %40
  %63 = load ptr, ptr %5, align 8
  %64 = icmp ne ptr %63, null
  br i1 %64, label %65, label %153

65:                                               ; preds = %62
  %66 = load ptr, ptr %5, align 8
  %67 = getelementptr inbounds nuw %struct._fragment_item, ptr %66, i32 0, i32 3
  %68 = load i32, ptr %67, align 8
  %69 = icmp ne i32 %68, 0
  br i1 %69, label %70, label %147

70:                                               ; preds = %65
  %71 = load ptr, ptr %6, align 8
  %72 = icmp ne ptr %71, null
  br i1 %72, label %73, label %81

73:                                               ; preds = %70
  %74 = load ptr, ptr %6, align 8
  %75 = getelementptr inbounds nuw %struct._fragment_item, ptr %74, i32 0, i32 2
  %76 = load i32, ptr %75, align 4
  %77 = load ptr, ptr %5, align 8
  %78 = getelementptr inbounds nuw %struct._fragment_item, ptr %77, i32 0, i32 2
  %79 = load i32, ptr %78, align 4
  %80 = icmp ne i32 %76, %79
  br i1 %80, label %81, label %103

81:                                               ; preds = %73, %70
  %82 = load ptr, ptr %10, align 8
  %83 = load i32, ptr %7, align 4
  %84 = zext i32 %83 to i64
  %85 = getelementptr i8, ptr %82, i64 %84
  %86 = load ptr, ptr %5, align 8
  %87 = getelementptr inbounds nuw %struct._fragment_item, ptr %86, i32 0, i32 5
  %88 = load ptr, ptr %87, align 8
  %89 = load ptr, ptr %5, align 8
  %90 = getelementptr inbounds nuw %struct._fragment_item, ptr %89, i32 0, i32 3
  %91 = load i32, ptr %90, align 8
  %92 = call ptr @tvb_get_ptr(ptr noundef %88, i32 noundef 0, i32 noundef %91)
  %93 = load ptr, ptr %5, align 8
  %94 = getelementptr inbounds nuw %struct._fragment_item, ptr %93, i32 0, i32 3
  %95 = load i32, ptr %94, align 8
  %96 = zext i32 %95 to i64
  %97 = call ptr @memcpy.inline(ptr noundef %85, ptr noundef %92, i64 noundef %96) #16
  %98 = load ptr, ptr %5, align 8
  %99 = getelementptr inbounds nuw %struct._fragment_item, ptr %98, i32 0, i32 3
  %100 = load i32, ptr %99, align 8
  %101 = load i32, ptr %7, align 4
  %102 = add i32 %101, %100
  store i32 %102, ptr %7, align 4
  br label %146

103:                                              ; preds = %73
  %104 = load ptr, ptr %5, align 8
  %105 = getelementptr inbounds nuw %struct._fragment_item, ptr %104, i32 0, i32 4
  %106 = load i32, ptr %105, align 4
  %107 = or i32 %106, 2
  store i32 %107, ptr %105, align 4
  %108 = load ptr, ptr %3, align 8
  %109 = getelementptr inbounds nuw %struct._fragment_head, ptr %108, i32 0, i32 10
  %110 = load i32, ptr %109, align 8
  %111 = or i32 %110, 2
  store i32 %111, ptr %109, align 8
  %112 = load ptr, ptr %6, align 8
  %113 = getelementptr inbounds nuw %struct._fragment_item, ptr %112, i32 0, i32 3
  %114 = load i32, ptr %113, align 8
  %115 = load ptr, ptr %5, align 8
  %116 = getelementptr inbounds nuw %struct._fragment_item, ptr %115, i32 0, i32 3
  %117 = load i32, ptr %116, align 8
  %118 = icmp ne i32 %114, %117
  br i1 %118, label %136, label %119

119:                                              ; preds = %103
  %120 = load ptr, ptr %6, align 8
  %121 = getelementptr inbounds nuw %struct._fragment_item, ptr %120, i32 0, i32 5
  %122 = load ptr, ptr %121, align 8
  %123 = load ptr, ptr %5, align 8
  %124 = getelementptr inbounds nuw %struct._fragment_item, ptr %123, i32 0, i32 5
  %125 = load ptr, ptr %124, align 8
  %126 = load ptr, ptr %6, align 8
  %127 = getelementptr inbounds nuw %struct._fragment_item, ptr %126, i32 0, i32 3
  %128 = load i32, ptr %127, align 8
  %129 = call ptr @tvb_get_ptr(ptr noundef %125, i32 noundef 0, i32 noundef %128)
  %130 = load ptr, ptr %6, align 8
  %131 = getelementptr inbounds nuw %struct._fragment_item, ptr %130, i32 0, i32 3
  %132 = load i32, ptr %131, align 8
  %133 = zext i32 %132 to i64
  %134 = call i32 @tvb_memeql(ptr noundef %122, i32 noundef 0, ptr noundef %129, i64 noundef %133)
  %135 = icmp ne i32 %134, 0
  br i1 %135, label %136, label %145

136:                                              ; preds = %119, %103
  %137 = load ptr, ptr %5, align 8
  %138 = getelementptr inbounds nuw %struct._fragment_item, ptr %137, i32 0, i32 4
  %139 = load i32, ptr %138, align 4
  %140 = or i32 %139, 4
  store i32 %140, ptr %138, align 4
  %141 = load ptr, ptr %3, align 8
  %142 = getelementptr inbounds nuw %struct._fragment_head, ptr %141, i32 0, i32 10
  %143 = load i32, ptr %142, align 8
  %144 = or i32 %143, 4
  store i32 %144, ptr %142, align 8
  br label %145

145:                                              ; preds = %136, %119
  br label %146

146:                                              ; preds = %145, %81
  br label %147

147:                                              ; preds = %146, %65
  %148 = load ptr, ptr %5, align 8
  store ptr %148, ptr %6, align 8
  br label %149

149:                                              ; preds = %147
  %150 = load ptr, ptr %5, align 8
  %151 = getelementptr inbounds nuw %struct._fragment_item, ptr %150, i32 0, i32 0
  %152 = load ptr, ptr %151, align 8
  store ptr %152, ptr %5, align 8
  br label %62, !llvm.loop !29

153:                                              ; preds = %62
  %154 = load ptr, ptr %3, align 8
  %155 = getelementptr inbounds nuw %struct._fragment_head, ptr %154, i32 0, i32 0
  %156 = load ptr, ptr %155, align 8
  store ptr %156, ptr %5, align 8
  br label %157

157:                                              ; preds = %184, %153
  %158 = load ptr, ptr %5, align 8
  %159 = icmp ne ptr %158, null
  br i1 %159, label %160, label %188

160:                                              ; preds = %157
  %161 = load ptr, ptr %5, align 8
  %162 = getelementptr inbounds nuw %struct._fragment_item, ptr %161, i32 0, i32 4
  %163 = load i32, ptr %162, align 4
  %164 = and i32 %163, 32
  %165 = icmp ne i32 %164, 0
  br i1 %165, label %166, label %171

166:                                              ; preds = %160
  %167 = load ptr, ptr %5, align 8
  %168 = getelementptr inbounds nuw %struct._fragment_item, ptr %167, i32 0, i32 4
  %169 = load i32, ptr %168, align 4
  %170 = and i32 %169, -33
  store i32 %170, ptr %168, align 4
  br label %181

171:                                              ; preds = %160
  %172 = load ptr, ptr %5, align 8
  %173 = getelementptr inbounds nuw %struct._fragment_item, ptr %172, i32 0, i32 5
  %174 = load ptr, ptr %173, align 8
  %175 = icmp ne ptr %174, null
  br i1 %175, label %176, label %180

176:                                              ; preds = %171
  %177 = load ptr, ptr %5, align 8
  %178 = getelementptr inbounds nuw %struct._fragment_item, ptr %177, i32 0, i32 5
  %179 = load ptr, ptr %178, align 8
  call void @tvb_free(ptr noundef %179)
  br label %180

180:                                              ; preds = %176, %171
  br label %181

181:                                              ; preds = %180, %166
  %182 = load ptr, ptr %5, align 8
  %183 = getelementptr inbounds nuw %struct._fragment_item, ptr %182, i32 0, i32 5
  store ptr null, ptr %183, align 8
  br label %184

184:                                              ; preds = %181
  %185 = load ptr, ptr %5, align 8
  %186 = getelementptr inbounds nuw %struct._fragment_item, ptr %185, i32 0, i32 0
  %187 = load ptr, ptr %186, align 8
  store ptr %187, ptr %5, align 8
  br label %157, !llvm.loop !30

188:                                              ; preds = %157
  %189 = load ptr, ptr %9, align 8
  %190 = icmp ne ptr %189, null
  br i1 %190, label %191, label %193

191:                                              ; preds = %188
  %192 = load ptr, ptr %9, align 8
  call void @tvb_free(ptr noundef %192)
  br label %193

193:                                              ; preds = %191, %188
  %194 = load ptr, ptr %3, align 8
  %195 = getelementptr inbounds nuw %struct._fragment_head, ptr %194, i32 0, i32 10
  %196 = load i32, ptr %195, align 8
  %197 = or i32 %196, 1
  store i32 %197, ptr %195, align 8
  %198 = load ptr, ptr %4, align 8
  %199 = getelementptr inbounds nuw %struct._packet_info, ptr %198, i32 0, i32 3
  %200 = load i32, ptr %199, align 4
  %201 = load ptr, ptr %3, align 8
  %202 = getelementptr inbounds nuw %struct._fragment_head, ptr %201, i32 0, i32 8
  store i32 %200, ptr %202, align 8
  %203 = load ptr, ptr %4, align 8
  %204 = getelementptr inbounds nuw %struct._packet_info, ptr %203, i32 0, i32 41
  %205 = load i8, ptr %204, align 8
  %206 = load ptr, ptr %3, align 8
  %207 = getelementptr inbounds nuw %struct._fragment_head, ptr %206, i32 0, i32 9
  store i8 %205, ptr %207, align 4
  call void @llvm.lifetime.end.p0(i64 8, ptr %10) #16
  call void @llvm.lifetime.end.p0(i64 8, ptr %9) #16
  call void @llvm.lifetime.end.p0(i64 4, ptr %8) #16
  call void @llvm.lifetime.end.p0(i64 4, ptr %7) #16
  call void @llvm.lifetime.end.p0(i64 8, ptr %6) #16
  call void @llvm.lifetime.end.p0(i64 8, ptr %5) #16
  ret void
}