; Function Attrs: null_pointer_is_valid sspstrong uwtable
define internal fastcc void @fragment_defragment_and_free(ptr noundef captures(none) %0, ptr noundef readonly captures(none) %1) unnamed_addr #2 {
  %.078 = load ptr, ptr %0, align 8
  %.not79 = icmp eq ptr %.078, null
  br i1 %.not79, label %._crit_edge, label %.lr.ph

.lr.ph:                                           ; preds = %2, %12
  %.082 = phi ptr [ %.0, %12 ], [ %.078, %2 ]
  %.05781 = phi i32 [ %.158, %12 ], [ 0, %2 ]
  %.06180 = phi ptr [ %.082, %12 ], [ null, %2 ]
  %.not76 = icmp eq ptr %.06180, null
  br i1 %.not76, label %8, label %3

3:                                                ; preds = %.lr.ph
  %4 = getelementptr inbounds nuw i8, ptr %.06180, i64 12
  %5 = load i32, ptr %4, align 4
  %6 = getelementptr inbounds nuw i8, ptr %.082, i64 12
  %7 = load i32, ptr %6, align 4
  %.not77 = icmp eq i32 %5, %7
  br i1 %.not77, label %12, label %8

8:                                                ; preds = %3, %.lr.ph
  %9 = getelementptr inbounds nuw i8, ptr %.082, i64 16
  %10 = load i32, ptr %9, align 8
  %11 = add i32 %10, %.05781
  br label %12

12:                                               ; preds = %8, %3
  %.158 = phi i32 [ %11, %8 ], [ %.05781, %3 ]
  %.0 = load ptr, ptr %.082, align 8
  %.not = icmp eq ptr %.0, null
  br i1 %.not, label %._crit_edge, label %.lr.ph, !llvm.loop !37

._crit_edge:                                      ; preds = %12, %2
  %.057.lcssa = phi i32 [ 0, %2 ], [ %.158, %12 ]
  %13 = getelementptr inbounds nuw i8, ptr %0, i64 56
  %14 = load ptr, ptr %13, align 8
  %15 = zext i32 %.057.lcssa to i64
  %16 = tail call noalias ptr @g_malloc(i64 noundef %15) #15
  %17 = tail call ptr @tvb_new_real_data(ptr noundef %16, i32 noundef %.057.lcssa, i32 noundef %.057.lcssa)
  store ptr %17, ptr %13, align 8
  tail call void @tvb_set_free_cb(ptr noundef %17, ptr noundef nonnull @g_free)
  %18 = getelementptr inbounds nuw i8, ptr %0, i64 28
  store i32 %.057.lcssa, ptr %18, align 4
  %.183 = load ptr, ptr %0, align 8
  %.not6684 = icmp eq ptr %.183, null
  br i1 %.not6684, label %._crit_edge94, label %.lr.ph89

.lr.ph89:                                         ; preds = %._crit_edge
  %19 = getelementptr inbounds nuw i8, ptr %0, i64 48
  br label %20

.preheader:                                       ; preds = %67
  %.290.pre = load ptr, ptr %0, align 8
  %.not6791 = icmp eq ptr %.290.pre, null
  br i1 %.not6791, label %._crit_edge94, label %.lr.ph93

20:                                               ; preds = %.lr.ph89, %67
  %.187 = phi ptr [ %.183, %.lr.ph89 ], [ %.1, %67 ]
  %.05986 = phi i32 [ 0, %.lr.ph89 ], [ %.160, %67 ]
  %.16285 = phi ptr [ null, %.lr.ph89 ], [ %.187, %67 ]
  %21 = getelementptr inbounds nuw i8, ptr %.187, i64 16
  %22 = load i32, ptr %21, align 8
  %.not71 = icmp eq i32 %22, 0
  br i1 %.not71, label %67, label %23

23:                                               ; preds = %20
  %.not72 = icmp eq ptr %.16285, null
  br i1 %.not72, label %29, label %24

24:                                               ; preds = %23
  %25 = getelementptr inbounds nuw i8, ptr %.16285, i64 12
  %26 = load i32, ptr %25, align 4
  %27 = getelementptr inbounds nuw i8, ptr %.187, i64 12
  %28 = load i32, ptr %27, align 4
  %.not73 = icmp eq i32 %26, %28
  br i1 %.not73, label %44, label %29

29:                                               ; preds = %24, %23
  %30 = zext i32 %.05986 to i64
  %31 = getelementptr i8, ptr %16, i64 %30
  %32 = getelementptr inbounds nuw i8, ptr %.187, i64 24
  %33 = load ptr, ptr %32, align 8
  %34 = tail call ptr @tvb_get_ptr(ptr noundef %33, i32 noundef 0, i32 noundef %22)
  %35 = load i32, ptr %21, align 8
  %36 = zext i32 %35 to i64
  %37 = sub nsw i64 %15, %30
  %38 = icmp ugt i32 %.05986, %.057.lcssa
  %39 = select i1 %38, i64 0, i64 %37
  %40 = icmp ne i64 %39, -1
  tail call void @llvm.assume(i1 %40)
  %41 = tail call ptr @__memcpy_chk(ptr noundef %31, ptr noundef %34, i64 noundef range(i64 0, 4294967296) %36, i64 noundef %39) #18, !alias.scope !38
  %42 = load i32, ptr %21, align 8
  %43 = add i32 %42, %.05986
  br label %67

44:                                               ; preds = %24
  %45 = getelementptr inbounds nuw i8, ptr %.187, i64 20
  %46 = load i32, ptr %45, align 4
  %47 = or i32 %46, 2
  store i32 %47, ptr %45, align 4
  %48 = load i32, ptr %19, align 8
  %49 = or i32 %48, 2
  store i32 %49, ptr %19, align 8
  %50 = getelementptr inbounds nuw i8, ptr %.16285, i64 16
  %51 = load i32, ptr %50, align 8
  %52 = load i32, ptr %21, align 8
  %.not74 = icmp eq i32 %51, %52
  br i1 %.not74, label %53, label %62

53:                                               ; preds = %44
  %54 = getelementptr inbounds nuw i8, ptr %.16285, i64 24
  %55 = load ptr, ptr %54, align 8
  %56 = getelementptr inbounds nuw i8, ptr %.187, i64 24
  %57 = load ptr, ptr %56, align 8
  %58 = tail call ptr @tvb_get_ptr(ptr noundef %57, i32 noundef 0, i32 noundef %51)
  %59 = load i32, ptr %50, align 8
  %60 = zext i32 %59 to i64
  %61 = tail call i32 @tvb_memeql(ptr noundef %55, i32 noundef 0, ptr noundef %58, i64 noundef %60)
  %.not75 = icmp eq i32 %61, 0
  br i1 %.not75, label %67, label %62

62:                                               ; preds = %53, %44
  %63 = load i32, ptr %45, align 4
  %64 = or i32 %63, 4
  store i32 %64, ptr %45, align 4
  %65 = load i32, ptr %19, align 8
  %66 = or i32 %65, 4
  store i32 %66, ptr %19, align 8
  br label %67

67:                                               ; preds = %29, %62, %53, %20
  %.160 = phi i32 [ %43, %29 ], [ %.05986, %62 ], [ %.05986, %53 ], [ %.05986, %20 ]
  %.1 = load ptr, ptr %.187, align 8
  %.not66 = icmp eq ptr %.1, null
  br i1 %.not66, label %.preheader, label %20, !llvm.loop !42

.lr.ph93:                                         ; preds = %.preheader, %77
  %.292 = phi ptr [ %.2, %77 ], [ %.290.pre, %.preheader ]
  %68 = getelementptr inbounds nuw i8, ptr %.292, i64 20
  %69 = load i32, ptr %68, align 4
  %70 = and i32 %69, 32
  %.not69 = icmp eq i32 %70, 0
  br i1 %.not69, label %73, label %71

71:                                               ; preds = %.lr.ph93
  %72 = and i32 %69, -33
  store i32 %72, ptr %68, align 4
  br label %77

73:                                               ; preds = %.lr.ph93
  %74 = getelementptr inbounds nuw i8, ptr %.292, i64 24
  %75 = load ptr, ptr %74, align 8
  %.not70 = icmp eq ptr %75, null
  br i1 %.not70, label %77, label %76

76:                                               ; preds = %73
  tail call void @tvb_free(ptr noundef nonnull %75)
  br label %77

77:                                               ; preds = %73, %76, %71
  %78 = getelementptr inbounds nuw i8, ptr %.292, i64 24
  store ptr null, ptr %78, align 8
  %.2 = load ptr, ptr %.292, align 8
  %.not67 = icmp eq ptr %.2, null
  br i1 %.not67, label %._crit_edge94, label %.lr.ph93, !llvm.loop !43

._crit_edge94:                                    ; preds = %77, %._crit_edge, %.preheader
  %.not68 = icmp eq ptr %14, null
  br i1 %.not68, label %80, label %79

79:                                               ; preds = %._crit_edge94
  tail call void @tvb_free(ptr noundef nonnull %14)
  br label %80

80:                                               ; preds = %79, %._crit_edge94
  %81 = getelementptr inbounds nuw i8, ptr %0, i64 48
  %82 = load i32, ptr %81, align 8
  %83 = or i32 %82, 1
  store i32 %83, ptr %81, align 8
  %84 = getelementptr inbounds nuw i8, ptr %1, i64 20
  %85 = load i32, ptr %84, align 4
  %86 = getelementptr inbounds nuw i8, ptr %0, i64 40
  store i32 %85, ptr %86, align 8
  %87 = getelementptr inbounds nuw i8, ptr %1, i64 376
  %88 = load i8, ptr %87, align 8
  %89 = getelementptr inbounds nuw i8, ptr %0, i64 44
  store i8 %88, ptr %89, align 4
  ret void
}